target datalayout = "e-m:e-p270:32:32-p271:32:32-p272:64:64-i64:64-i128:128-f80:128-n8:16:32:64-S128"
target triple = "x86_64-pc-linux-gnu"

%struct.nghttp2_huff_decode = type { i16, i8 }
%struct.nghttp2_buf = type { ptr, ptr, ptr, ptr, ptr }
%struct.nghttp2_hd_huff_decode_context = type { i16 }

@huff_decode_table = external constant [0 x [16 x %struct.nghttp2_huff_decode]], align 2

; Function Attrs: nounwind uwtable
define dso_local i64 @nghttp2_hd_huff_decode(ptr noundef %0, ptr noundef %1, ptr noundef %2, i64 noundef %3, i32 noundef %4) #0 {
  %6 = alloca i64, align 8
  %7 = alloca ptr, align 8
  %8 = alloca ptr, align 8
  %9 = alloca ptr, align 8
  %10 = alloca i64, align 8
  %11 = alloca i32, align 4
  %12 = alloca ptr, align 8
  %13 = alloca %struct.nghttp2_huff_decode, align 2
  %14 = alloca ptr, align 8
  %15 = alloca i8, align 1
  %16 = alloca i32, align 4
  store ptr %0, ptr %7, align 8, !tbaa !17
  store ptr %1, ptr %8, align 8, !tbaa !17
  store ptr %2, ptr %9, align 8, !tbaa !4
  store i64 %3, ptr %10, align 8, !tbaa !9
  store i32 %4, ptr %11, align 4, !tbaa !27
  call void @llvm.lifetime.start.p0(i64 8, ptr %12) #6
  %17 = load ptr, ptr %9, align 8, !tbaa !4
  %18 = load i64, ptr %10, align 8, !tbaa !9
  %19 = getelementptr inbounds nuw i8, ptr %17, i64 %18
  store ptr %19, ptr %12, align 8, !tbaa !4
  call void @llvm.lifetime.start.p0(i64 4, ptr %13) #6
  %20 = getelementptr inbounds nuw %struct.nghttp2_huff_decode, ptr %13, i32 0, i32 0
  %21 = load ptr, ptr %7, align 8, !tbaa !17
  %22 = getelementptr inbounds nuw %struct.nghttp2_hd_huff_decode_context, ptr %21, i32 0, i32 0
  %23 = load i16, ptr %22, align 2, !tbaa !30
  store i16 %23, ptr %20, align 2, !tbaa !33
  %24 = getelementptr inbounds nuw %struct.nghttp2_huff_decode, ptr %13, i32 0, i32 1
  store i8 0, ptr %24, align 2, !tbaa !35
  %25 = getelementptr i8, ptr %13, i64 3
  call void @llvm.memset.p0.i64(ptr align 1 %25, i8 0, i64 1, i1 false)
  call void @llvm.lifetime.start.p0(i64 8, ptr %14) #6
  store ptr %13, ptr %14, align 8, !tbaa !17
  call void @llvm.lifetime.start.p0(i64 1, ptr %15) #6
  br label %26

26:                                               ; preds = %87, %5
  %27 = load ptr, ptr %9, align 8, !tbaa !4
  %28 = load ptr, ptr %12, align 8, !tbaa !4
  %29 = icmp ne ptr %27, %28
  br i1 %29, label %30, label %88

30:                                               ; preds = %26
  %31 = load ptr, ptr %9, align 8, !tbaa !4
  %32 = getelementptr inbounds nuw i8, ptr %31, i32 1
  store ptr %32, ptr %9, align 8, !tbaa !4
  %33 = load i8, ptr %31, align 1, !tbaa !11
  store i8 %33, ptr %15, align 1, !tbaa !11
  %34 = load ptr, ptr %14, align 8, !tbaa !17
  %35 = getelementptr inbounds nuw %struct.nghttp2_huff_decode, ptr %34, i32 0, i32 0
  %36 = load i16, ptr %35, align 2, !tbaa !33
  %37 = zext i16 %36 to i32
  %38 = and i32 %37, 511
  %39 = sext i32 %38 to i64
  %40 = getelementptr inbounds [0 x [16 x %struct.nghttp2_huff_decode]], ptr @huff_decode_table, i64 0, i64 %39
  %41 = load i8, ptr %15, align 1, !tbaa !11
  %42 = zext i8 %41 to i32
  %43 = ashr i32 %42, 4
  %44 = sext i32 %43 to i64
  %45 = getelementptr inbounds [16 x %struct.nghttp2_huff_decode], ptr %40, i64 0, i64 %44
  store ptr %45, ptr %14, align 8, !tbaa !17
  %46 = load ptr, ptr %14, align 8, !tbaa !17
  %47 = getelementptr inbounds nuw %struct.nghttp2_huff_decode, ptr %46, i32 0, i32 0
  %48 = load i16, ptr %47, align 2, !tbaa !33
  %49 = zext i16 %48 to i32
  %50 = and i32 %49, 32768
  %51 = icmp ne i32 %50, 0
  br i1 %51, label %52, label %60

52:                                               ; preds = %30
  %53 = load ptr, ptr %14, align 8, !tbaa !17
  %54 = getelementptr inbounds nuw %struct.nghttp2_huff_decode, ptr %53, i32 0, i32 1
  %55 = load i8, ptr %54, align 2, !tbaa !35
  %56 = load ptr, ptr %8, align 8, !tbaa !17
  %57 = getelementptr inbounds nuw %struct.nghttp2_buf, ptr %56, i32 0, i32 3
  %58 = load ptr, ptr %57, align 8, !tbaa !36
  %59 = getelementptr inbounds nuw i8, ptr %58, i32 1
  store ptr %59, ptr %57, align 8, !tbaa !36
  store i8 %55, ptr %58, align 1, !tbaa !11
  br label %60

60:                                               ; preds = %52, %30
  %61 = load ptr, ptr %14, align 8, !tbaa !17
  %62 = getelementptr inbounds nuw %struct.nghttp2_huff_decode, ptr %61, i32 0, i32 0
  %63 = load i16, ptr %62, align 2, !tbaa !33
  %64 = zext i16 %63 to i32
  %65 = and i32 %64, 511
  %66 = sext i32 %65 to i64
  %67 = getelementptr inbounds [0 x [16 x %struct.nghttp2_huff_decode]], ptr @huff_decode_table, i64 0, i64 %66
  %68 = load i8, ptr %15, align 1, !tbaa !11
  %69 = zext i8 %68 to i32
  %70 = and i32 %69, 15
  %71 = sext i32 %70 to i64
  %72 = getelementptr inbounds [16 x %struct.nghttp2_huff_decode], ptr %67, i64 0, i64 %71
  store ptr %72, ptr %14, align 8, !tbaa !17
  %73 = load ptr, ptr %14, align 8, !tbaa !17
  %74 = getelementptr inbounds nuw %struct.nghttp2_huff_decode, ptr %73, i32 0, i32 0
  %75 = load i16, ptr %74, align 2, !tbaa !33
  %76 = zext i16 %75 to i32
  %77 = and i32 %76, 32768
  %78 = icmp ne i32 %77, 0
  br i1 %78, label %79, label %87

79:                                               ; preds = %60
  %80 = load ptr, ptr %14, align 8, !tbaa !17
  %81 = getelementptr inbounds nuw %struct.nghttp2_huff_decode, ptr %80, i32 0, i32 1
  %82 = load i8, ptr %81, align 2, !tbaa !35
  %83 = load ptr, ptr %8, align 8, !tbaa !17
  %84 = getelementptr inbounds nuw %struct.nghttp2_buf, ptr %83, i32 0, i32 3
  %85 = load ptr, ptr %84, align 8, !tbaa !36
  %86 = getelementptr inbounds nuw i8, ptr %85, i32 1
  store ptr %86, ptr %84, align 8, !tbaa !36
  store i8 %82, ptr %85, align 1, !tbaa !11
  br label %87

87:                                               ; preds = %79, %60
  br label %26, !llvm.loop !37

88:                                               ; preds = %26
  %89 = load ptr, ptr %14, align 8, !tbaa !17
  %90 = getelementptr inbounds nuw %struct.nghttp2_huff_decode, ptr %89, i32 0, i32 0
  %91 = load i16, ptr %90, align 2, !tbaa !33
  %92 = load ptr, ptr %7, align 8, !tbaa !17
  %93 = getelementptr inbounds nuw %struct.nghttp2_hd_huff_decode_context, ptr %92, i32 0, i32 0
  store i16 %91, ptr %93, align 2, !tbaa !30
  %94 = load i32, ptr %11, align 4, !tbaa !27
  %95 = icmp ne i32 %94, 0
  br i1 %95, label %96, label %104

96:                                               ; preds = %88
  %97 = load ptr, ptr %7, align 8, !tbaa !17
  %98 = getelementptr inbounds nuw %struct.nghttp2_hd_huff_decode_context, ptr %97, i32 0, i32 0
  %99 = load i16, ptr %98, align 2, !tbaa !30
  %100 = zext i16 %99 to i32
  %101 = and i32 %100, 16384
  %102 = icmp ne i32 %101, 0
  br i1 %102, label %104, label %103

103:                                              ; preds = %96
  store i64 -523, ptr %6, align 8
  store i32 1, ptr %16, align 4
  br label %106

104:                                              ; preds = %96, %88
  %105 = load i64, ptr %10, align 8, !tbaa !9
  store i64 %105, ptr %6, align 8
  store i32 1, ptr %16, align 4
  br label %106

106:                                              ; preds = %104, %103
  call void @llvm.lifetime.end.p0(i64 1, ptr %15) #6
  call void @llvm.lifetime.end.p0(i64 8, ptr %14) #6
  call void @llvm.lifetime.end.p0(i64 4, ptr %13) #6
  call void @llvm.lifetime.end.p0(i64 8, ptr %12) #6
  %107 = load i64, ptr %6, align 8
  ret i64 %107
}